target datalayout = "e-m:e-p270:32:32-p271:32:32-p272:64:64-i64:64-i128:128-f80:128-n8:16:32:64-S128"
target triple = "x86_64-pc-linux-gnu"

%"class.std::__cxx11::basic_string" = type { %"struct.std::__cxx11::basic_string<char>::_Alloc_hider", i64, %union.anon }
%"struct.std::__cxx11::basic_string<char>::_Alloc_hider" = type { ptr }
%union.anon = type { i64, [8 x i8] }

@.str.206 = private unnamed_addr constant [3 x i8] c"}\0A\00", align 1
@.str.210 = private unnamed_addr constant [2 x i8] c"\0A\00", align 1
@.str.407 = private unnamed_addr constant [5 x i8] c"if (\00", align 1
@.str.512 = private unnamed_addr constant [3 x i8] c") \00", align 1
@.str.513 = private unnamed_addr constant [5 x i8] c") {\0A\00", align 1
@.str.514 = private unnamed_addr constant [10 x i8] c"} else {\0A\00", align 1

; Function Attrs: mustprogress uwtable
define void @_ZN6casadi13CodeGenerator12copy_defaultERKNSt7__cxx1112basic_stringIcSt11char_traitsIcESaIcEEEmS8_S8_b(ptr noundef nonnull align 8 dereferenceable(3097) %0, ptr noundef nonnull align 8 dereferenceable(32) %1, i64 noundef %2, ptr noundef nonnull align 8 dereferenceable(32) %3, ptr noundef nonnull align 8 dereferenceable(32) %4, i1 noundef zeroext %5) #4 align 2 personality ptr @__gxx_personality_v0 {
  %7 = alloca ptr, align 8
  %8 = alloca ptr, align 8
  %9 = alloca i64, align 8
  %10 = alloca ptr, align 8
  %11 = alloca ptr, align 8
  %12 = alloca i8, align 1
  %13 = alloca %"class.std::__cxx11::basic_string", align 8
  %14 = alloca ptr, align 8
  %15 = alloca i32, align 4
  %16 = alloca %"class.std::__cxx11::basic_string", align 8
  store ptr %0, ptr %7, align 8
  store ptr %1, ptr %8, align 8
  store i64 %2, ptr %9, align 8
  store ptr %3, ptr %10, align 8
  store ptr %4, ptr %11, align 8
  %17 = zext i1 %5 to i8
  store i8 %17, ptr %12, align 1
  %18 = load ptr, ptr %7, align 8
  %19 = call noundef nonnull align 8 dereferenceable(3097) ptr @_ZN6casadi13CodeGeneratorlsIPKcEERS0_T_(ptr noundef nonnull align 8 dereferenceable(3097) %18, ptr noundef @.str.407)
  %20 = load ptr, ptr %8, align 8
  %21 = call noundef nonnull align 8 dereferenceable(3097) ptr @_ZN6casadi13CodeGeneratorlsERKNSt7__cxx1112basic_stringIcSt11char_traitsIcESaIcEEE(ptr noundef nonnull align 8 dereferenceable(3097) %19, ptr noundef nonnull align 8 dereferenceable(32) %20)
  %22 = call noundef nonnull align 8 dereferenceable(3097) ptr @_ZN6casadi13CodeGeneratorlsIPKcEERS0_T_(ptr noundef nonnull align 8 dereferenceable(3097) %21, ptr noundef @.str.513)
  %23 = load i8, ptr %12, align 1
  %24 = trunc i8 %23 to i1
  br i1 %24, label %25, label %30

25:                                               ; preds = %6
  %26 = call noundef nonnull align 8 dereferenceable(3097) ptr @_ZN6casadi13CodeGeneratorlsIPKcEERS0_T_(ptr noundef nonnull align 8 dereferenceable(3097) %18, ptr noundef @.str.407)
  %27 = load ptr, ptr %10, align 8
  %28 = call noundef nonnull align 8 dereferenceable(3097) ptr @_ZN6casadi13CodeGeneratorlsERKNSt7__cxx1112basic_stringIcSt11char_traitsIcESaIcEEE(ptr noundef nonnull align 8 dereferenceable(3097) %26, ptr noundef nonnull align 8 dereferenceable(32) %27)
  %29 = call noundef nonnull align 8 dereferenceable(3097) ptr @_ZN6casadi13CodeGeneratorlsIPKcEERS0_T_(ptr noundef nonnull align 8 dereferenceable(3097) %28, ptr noundef @.str.512)
  br label %30

30:                                               ; preds = %25, %6
  %31 = load ptr, ptr %8, align 8
  %32 = load i64, ptr %9, align 8
  %33 = load ptr, ptr %10, align 8
  call void @_ZN6casadi13CodeGenerator4copyERKNSt7__cxx1112basic_stringIcSt11char_traitsIcESaIcEEEmS8_(ptr dead_on_unwind writable sret(%"class.std::__cxx11::basic_string") align 8 %13, ptr noundef nonnull align 8 dereferenceable(3097) %18, ptr noundef nonnull align 8 dereferenceable(32) %31, i64 noundef %32, ptr noundef nonnull align 8 dereferenceable(32) %33)
  %34 = invoke noundef nonnull align 8 dereferenceable(3097) ptr @_ZN6casadi13CodeGeneratorlsERKNSt7__cxx1112basic_stringIcSt11char_traitsIcESaIcEEE(ptr noundef nonnull align 8 dereferenceable(3097) %18, ptr noundef nonnull align 8 dereferenceable(32) %13)
          to label %35 unwind label %46

35:                                               ; preds = %30
  %36 = invoke noundef nonnull align 8 dereferenceable(3097) ptr @_ZN6casadi13CodeGeneratorlsIPKcEERS0_T_(ptr noundef nonnull align 8 dereferenceable(3097) %34, ptr noundef @.str.210)
          to label %37 unwind label %46

37:                                               ; preds = %35
  call void @_ZNSt7__cxx1112basic_stringIcSt11char_traitsIcESaIcEED1Ev(ptr noundef nonnull align 8 dereferenceable(32) %13) #3
  %38 = call noundef nonnull align 8 dereferenceable(3097) ptr @_ZN6casadi13CodeGeneratorlsIPKcEERS0_T_(ptr noundef nonnull align 8 dereferenceable(3097) %18, ptr noundef @.str.514)
  %39 = load i8, ptr %12, align 1
  %40 = trunc i8 %39 to i1
  br i1 %40, label %41, label %50

41:                                               ; preds = %37
  %42 = call noundef nonnull align 8 dereferenceable(3097) ptr @_ZN6casadi13CodeGeneratorlsIPKcEERS0_T_(ptr noundef nonnull align 8 dereferenceable(3097) %18, ptr noundef @.str.407)
  %43 = load ptr, ptr %10, align 8
  %44 = call noundef nonnull align 8 dereferenceable(3097) ptr @_ZN6casadi13CodeGeneratorlsERKNSt7__cxx1112basic_stringIcSt11char_traitsIcESaIcEEE(ptr noundef nonnull align 8 dereferenceable(3097) %42, ptr noundef nonnull align 8 dereferenceable(32) %43)
  %45 = call noundef nonnull align 8 dereferenceable(3097) ptr @_ZN6casadi13CodeGeneratorlsIPKcEERS0_T_(ptr noundef nonnull align 8 dereferenceable(3097) %44, ptr noundef @.str.512)
  br label %50

46:                                               ; preds = %35, %30
  %47 = landingpad { ptr, i32 }
          cleanup
  %48 = extractvalue { ptr, i32 } %47, 0
  store ptr %48, ptr %14, align 8
  %49 = extractvalue { ptr, i32 } %47, 1
  store i32 %49, ptr %15, align 4
  call void @_ZNSt7__cxx1112basic_stringIcSt11char_traitsIcESaIcEED1Ev(ptr noundef nonnull align 8 dereferenceable(32) %13) #3
  br label %63

50:                                               ; preds = %41, %37
  %51 = load ptr, ptr %10, align 8
  %52 = load i64, ptr %9, align 8
  %53 = load ptr, ptr %11, align 8
  call void @_ZN6casadi13CodeGenerator4fillERKNSt7__cxx1112basic_stringIcSt11char_traitsIcESaIcEEEmS8_(ptr dead_on_unwind writable sret(%"class.std::__cxx11::basic_string") align 8 %16, ptr noundef nonnull align 8 dereferenceable(3097) %18, ptr noundef nonnull align 8 dereferenceable(32) %51, i64 noundef %52, ptr noundef nonnull align 8 dereferenceable(32) %53)
  %54 = invoke noundef nonnull align 8 dereferenceable(3097) ptr @_ZN6casadi13CodeGeneratorlsERKNSt7__cxx1112basic_stringIcSt11char_traitsIcESaIcEEE(ptr noundef nonnull align 8 dereferenceable(3097) %18, ptr noundef nonnull align 8 dereferenceable(32) %16)
          to label %55 unwind label %59

55:                                               ; preds = %50
  %56 = invoke noundef nonnull align 8 dereferenceable(3097) ptr @_ZN6casadi13CodeGeneratorlsIPKcEERS0_T_(ptr noundef nonnull align 8 dereferenceable(3097) %54, ptr noundef @.str.210)
          to label %57 unwind label %59

57:                                               ; preds = %55
  call void @_ZNSt7__cxx1112basic_stringIcSt11char_traitsIcESaIcEED1Ev(ptr noundef nonnull align 8 dereferenceable(32) %16) #3
  %58 = call noundef nonnull align 8 dereferenceable(3097) ptr @_ZN6casadi13CodeGeneratorlsIPKcEERS0_T_(ptr noundef nonnull align 8 dereferenceable(3097) %18, ptr noundef @.str.206)
  ret void

59:                                               ; preds = %55, %50
  %60 = landingpad { ptr, i32 }
          cleanup
  %61 = extractvalue { ptr, i32 } %60, 0
  store ptr %61, ptr %14, align 8
  %62 = extractvalue { ptr, i32 } %60, 1
  store i32 %62, ptr %15, align 4
  call void @_ZNSt7__cxx1112basic_stringIcSt11char_traitsIcESaIcEED1Ev(ptr noundef nonnull align 8 dereferenceable(32) %16) #3
  br label %63

63:                                               ; preds = %59, %46
  %64 = load ptr, ptr %14, align 8
  %65 = load i32, ptr %15, align 4
  %66 = insertvalue { ptr, i32 } poison, ptr %64, 0
  %67 = insertvalue { ptr, i32 } %66, i32 %65, 1
  resume { ptr, i32 } %67
}